; ModuleID = '19/59.c'
source_filename = "19/59.c"
target datalayout = "e-m:e-p270:32:32-p271:32:32-p272:64:64-i64:64-f80:128-n8:16:32:64-S128"
target triple = "x86_64-pc-linux-gnu"

@.str = private unnamed_addr constant [3 x i8] c"%c\00", align 1

; Function Attrs: noinline nounwind uwtable
define dso_local i32 @main() #0 {
  %1 = alloca i32, align 4
  %2 = alloca [101 x i8], align 16
  %3 = alloca [101 x i8], align 16
  %4 = alloca [102 x i8], align 16
  %5 = alloca [101 x i8], align 16
  %6 = alloca [101 x i8], align 16
  %7 = alloca i32, align 4
  %8 = alloca i32, align 4
  %9 = alloca i32, align 4
  %10 = alloca i32, align 4
  %11 = alloca i32, align 4
  %12 = alloca i32, align 4
  %13 = alloca i32, align 4
  store i32 0, i32* %1, align 4
  %14 = getelementptr inbounds [101 x i8], [101 x i8]* %5, i64 0, i64 0
  %15 = call i32 (i8*, ...) bitcast (i32 (...)* @gets to i32 (i8*, ...)*)(i8* %14)
  %16 = getelementptr inbounds [101 x i8], [101 x i8]* %3, i64 0, i64 0
  %17 = call i32 (i8*, ...) bitcast (i32 (...)* @gets to i32 (i8*, ...)*)(i8* %16)
  %18 = getelementptr inbounds [101 x i8], [101 x i8]* %6, i64 0, i64 0
  %19 = call i32 (i8*, ...) bitcast (i32 (...)* @gets to i32 (i8*, ...)*)(i8* %18)
  store i32 0, i32* %8, align 4
  store i32 0, i32* %9, align 4
  store i32 0, i32* %10, align 4
  store i32 0, i32* %7, align 4
  br label %20

20:                                               ; preds = %27, %0
  %21 = load i32, i32* %7, align 4
  %22 = icmp slt i32 %21, 101
  br i1 %22, label %23, label %30

23:                                               ; preds = %20
  %24 = load i32, i32* %7, align 4
  %25 = sext i32 %24 to i64
  %26 = getelementptr inbounds [101 x i8], [101 x i8]* %2, i64 0, i64 %25
  store i8 0, i8* %26, align 1
  br label %27

27:                                               ; preds = %23
  %28 = load i32, i32* %7, align 4
  %29 = add nsw i32 %28, 1
  store i32 %29, i32* %7, align 4
  br label %20

30:                                               ; preds = %20
  %31 = getelementptr inbounds [102 x i8], [102 x i8]* %4, i64 0, i64 0
  store i8 32, i8* %31, align 16
  store i32 1, i32* %7, align 4
  br label %32

32:                                               ; preds = %44, %30
  %33 = load i32, i32* %7, align 4
  %34 = icmp slt i32 %33, 102
  br i1 %34, label %35, label %47

35:                                               ; preds = %32
  %36 = load i32, i32* %7, align 4
  %37 = sub nsw i32 %36, 1
  %38 = sext i32 %37 to i64
  %39 = getelementptr inbounds [101 x i8], [101 x i8]* %5, i64 0, i64 %38
  %40 = load i8, i8* %39, align 1
  %41 = load i32, i32* %7, align 4
  %42 = sext i32 %41 to i64
  %43 = getelementptr inbounds [102 x i8], [102 x i8]* %4, i64 0, i64 %42
  store i8 %40, i8* %43, align 1
  br label %44

44:                                               ; preds = %35
  %45 = load i32, i32* %7, align 4
  %46 = add nsw i32 %45, 1
  store i32 %46, i32* %7, align 4
  br label %32

47:                                               ; preds = %32
  store i32 0, i32* %7, align 4
  br label %48

48:                                               ; preds = %58, %47
  %49 = load i32, i32* %7, align 4
  %50 = sext i32 %49 to i64
  %51 = getelementptr inbounds [101 x i8], [101 x i8]* %3, i64 0, i64 %50
  %52 = load i8, i8* %51, align 1
  %53 = sext i8 %52 to i32
  %54 = icmp ne i32 %53, 0
  br i1 %54, label %55, label %61

55:                                               ; preds = %48
  %56 = load i32, i32* %8, align 4
  %57 = add nsw i32 %56, 1
  store i32 %57, i32* %8, align 4
  br label %58

58:                                               ; preds = %55
  %59 = load i32, i32* %7, align 4
  %60 = add nsw i32 %59, 1
  store i32 %60, i32* %7, align 4
  br label %48

61:                                               ; preds = %48
  store i32 0, i32* %7, align 4
  br label %62

62:                                               ; preds = %72, %61
  %63 = load i32, i32* %7, align 4
  %64 = sext i32 %63 to i64
  %65 = getelementptr inbounds [101 x i8], [101 x i8]* %6, i64 0, i64 %64
  %66 = load i8, i8* %65, align 1
  %67 = sext i8 %66 to i32
  %68 = icmp ne i32 %67, 0
  br i1 %68, label %69, label %75

69:                                               ; preds = %62
  %70 = load i32, i32* %9, align 4
  %71 = add nsw i32 %70, 1
  store i32 %71, i32* %9, align 4
  br label %72

72:                                               ; preds = %69
  %73 = load i32, i32* %7, align 4
  %74 = add nsw i32 %73, 1
  store i32 %74, i32* %7, align 4
  br label %62

75:                                               ; preds = %62
  store i32 0, i32* %7, align 4
  br label %76

76:                                               ; preds = %204, %75
  %77 = load i32, i32* %7, align 4
  %78 = icmp slt i32 %77, 101
  br i1 %78, label %79, label %86

79:                                               ; preds = %76
  %80 = load i32, i32* %7, align 4
  %81 = sext i32 %80 to i64
  %82 = getelementptr inbounds [102 x i8], [102 x i8]* %4, i64 0, i64 %81
  %83 = load i8, i8* %82, align 1
  %84 = sext i8 %83 to i32
  %85 = icmp ne i32 %84, 0
  br label %86

86:                                               ; preds = %79, %76
  %87 = phi i1 [ false, %76 ], [ %85, %79 ]
  br i1 %87, label %88, label %205

88:                                               ; preds = %86
  %89 = load i32, i32* %7, align 4
  %90 = sext i32 %89 to i64
  %91 = getelementptr inbounds [102 x i8], [102 x i8]* %4, i64 0, i64 %90
  %92 = load i8, i8* %91, align 1
  %93 = sext i8 %92 to i32
  %94 = icmp eq i32 %93, 32
  br i1 %94, label %95, label %192

95:                                               ; preds = %88
  store i32 1, i32* %12, align 4
  store i32 1, i32* %11, align 4
  br label %96

96:                                               ; preds = %138, %95
  %97 = load i32, i32* %11, align 4
  %98 = load i32, i32* %8, align 4
  %99 = add nsw i32 %98, 1
  %100 = icmp slt i32 %97, %99
  br i1 %100, label %101, label %141

101:                                              ; preds = %96
  %102 = load i32, i32* %11, align 4
  %103 = load i32, i32* %7, align 4
  %104 = add nsw i32 %102, %103
  %105 = sext i32 %104 to i64
  %106 = getelementptr inbounds [102 x i8], [102 x i8]* %4, i64 0, i64 %105
  %107 = load i8, i8* %106, align 1
  %108 = sext i8 %107 to i32
  %109 = load i32, i32* %11, align 4
  %110 = sub nsw i32 %109, 1
  %111 = sext i32 %110 to i64
  %112 = getelementptr inbounds [101 x i8], [101 x i8]* %3, i64 0, i64 %111
  %113 = load i8, i8* %112, align 1
  %114 = sext i8 %113 to i32
  %115 = icmp ne i32 %108, %114
  br i1 %115, label %116, label %117

116:                                              ; preds = %101
  store i32 0, i32* %12, align 4
  br label %141

117:                                              ; preds = %101
  %118 = load i32, i32* %11, align 4
  %119 = load i32, i32* %7, align 4
  %120 = add nsw i32 %118, %119
  %121 = sext i32 %120 to i64
  %122 = getelementptr inbounds [102 x i8], [102 x i8]* %4, i64 0, i64 %121
  %123 = load i8, i8* %122, align 1
  %124 = sext i8 %123 to i32
  %125 = icmp eq i32 %124, 0
  br i1 %125, label %126, label %127

126:                                              ; preds = %117
  store i32 0, i32* %12, align 4
  br label %141

127:                                              ; preds = %117
  %128 = load i32, i32* %11, align 4
  %129 = load i32, i32* %7, align 4
  %130 = add nsw i32 %128, %129
  %131 = sext i32 %130 to i64
  %132 = getelementptr inbounds [102 x i8], [102 x i8]* %4, i64 0, i64 %131
  %133 = load i8, i8* %132, align 1
  %134 = sext i8 %133 to i32
  %135 = icmp eq i32 %134, 32
  br i1 %135, label %136, label %137

136:                                              ; preds = %127
  store i32 0, i32* %12, align 4
  br label %141

137:                                              ; preds = %127
  br label %138

138:                                              ; preds = %137
  %139 = load i32, i32* %11, align 4
  %140 = add nsw i32 %139, 1
  store i32 %140, i32* %11, align 4
  br label %96

141:                                              ; preds = %136, %126, %116, %96
  %142 = load i32, i32* %12, align 4
  %143 = icmp eq i32 %142, 1
  br i1 %143, label %144, label %176

144:                                              ; preds = %141
  %145 = load i32, i32* %10, align 4
  %146 = sext i32 %145 to i64
  %147 = getelementptr inbounds [101 x i8], [101 x i8]* %2, i64 0, i64 %146
  store i8 32, i8* %147, align 1
  store i32 1, i32* %13, align 4
  br label %148

148:                                              ; preds = %164, %144
  %149 = load i32, i32* %13, align 4
  %150 = load i32, i32* %9, align 4
  %151 = add nsw i32 %150, 1
  %152 = icmp slt i32 %149, %151
  br i1 %152, label %153, label %167

153:                                              ; preds = %148
  %154 = load i32, i32* %13, align 4
  %155 = sub nsw i32 %154, 1
  %156 = sext i32 %155 to i64
  %157 = getelementptr inbounds [101 x i8], [101 x i8]* %6, i64 0, i64 %156
  %158 = load i8, i8* %157, align 1
  %159 = load i32, i32* %10, align 4
  %160 = load i32, i32* %13, align 4
  %161 = add nsw i32 %159, %160
  %162 = sext i32 %161 to i64
  %163 = getelementptr inbounds [101 x i8], [101 x i8]* %2, i64 0, i64 %162
  store i8 %158, i8* %163, align 1
  br label %164

164:                                              ; preds = %153
  %165 = load i32, i32* %13, align 4
  %166 = add nsw i32 %165, 1
  store i32 %166, i32* %13, align 4
  br label %148

167:                                              ; preds = %148
  %168 = load i32, i32* %9, align 4
  %169 = add nsw i32 %168, 1
  %170 = load i32, i32* %10, align 4
  %171 = add nsw i32 %170, %169
  store i32 %171, i32* %10, align 4
  %172 = load i32, i32* %8, align 4
  %173 = add nsw i32 %172, 1
  %174 = load i32, i32* %7, align 4
  %175 = add nsw i32 %174, %173
  store i32 %175, i32* %7, align 4
  br label %176

176:                                              ; preds = %167, %141
  %177 = load i32, i32* %12, align 4
  %178 = icmp eq i32 %177, 0
  br i1 %178, label %179, label %191

179:                                              ; preds = %176
  %180 = load i32, i32* %7, align 4
  %181 = sext i32 %180 to i64
  %182 = getelementptr inbounds [102 x i8], [102 x i8]* %4, i64 0, i64 %181
  %183 = load i8, i8* %182, align 1
  %184 = load i32, i32* %10, align 4
  %185 = sext i32 %184 to i64
  %186 = getelementptr inbounds [101 x i8], [101 x i8]* %2, i64 0, i64 %185
  store i8 %183, i8* %186, align 1
  %187 = load i32, i32* %7, align 4
  %188 = add nsw i32 %187, 1
  store i32 %188, i32* %7, align 4
  %189 = load i32, i32* %10, align 4
  %190 = add nsw i32 %189, 1
  store i32 %190, i32* %10, align 4
  br label %191

191:                                              ; preds = %179, %176
  br label %204

192:                                              ; preds = %88
  %193 = load i32, i32* %7, align 4
  %194 = sext i32 %193 to i64
  %195 = getelementptr inbounds [102 x i8], [102 x i8]* %4, i64 0, i64 %194
  %196 = load i8, i8* %195, align 1
  %197 = load i32, i32* %10, align 4
  %198 = sext i32 %197 to i64
  %199 = getelementptr inbounds [101 x i8], [101 x i8]* %2, i64 0, i64 %198
  store i8 %196, i8* %199, align 1
  %200 = load i32, i32* %7, align 4
  %201 = add nsw i32 %200, 1
  store i32 %201, i32* %7, align 4
  %202 = load i32, i32* %10, align 4
  %203 = add nsw i32 %202, 1
  store i32 %203, i32* %10, align 4
  br label %204

204:                                              ; preds = %192, %191
  br label %76

205:                                              ; preds = %86
  %206 = getelementptr inbounds [101 x i8], [101 x i8]* %2, i64 0, i64 0
  %207 = load i8, i8* %206, align 16
  %208 = sext i8 %207 to i32
  %209 = icmp eq i32 %208, 32
  br i1 %209, label %210, label %227

210:                                              ; preds = %205
  store i32 0, i32* %7, align 4
  br label %211

211:                                              ; preds = %223, %210
  %212 = load i32, i32* %7, align 4
  %213 = icmp slt i32 %212, 100
  br i1 %213, label %214, label %226

214:                                              ; preds = %211
  %215 = load i32, i32* %7, align 4
  %216 = add nsw i32 %215, 1
  %217 = sext i32 %216 to i64
  %218 = getelementptr inbounds [101 x i8], [101 x i8]* %2, i64 0, i64 %217
  %219 = load i8, i8* %218, align 1
  %220 = load i32, i32* %7, align 4
  %221 = sext i32 %220 to i64
  %222 = getelementptr inbounds [101 x i8], [101 x i8]* %2, i64 0, i64 %221
  store i8 %219, i8* %222, align 1
  br label %223

223:                                              ; preds = %214
  %224 = load i32, i32* %7, align 4
  %225 = add nsw i32 %224, 1
  store i32 %225, i32* %7, align 4
  br label %211

226:                                              ; preds = %211
  br label %227

227:                                              ; preds = %226, %205
  store i32 0, i32* %7, align 4
  br label %228

228:                                              ; preds = %242, %227
  %229 = load i32, i32* %7, align 4
  %230 = sext i32 %229 to i64
  %231 = getelementptr inbounds [101 x i8], [101 x i8]* %2, i64 0, i64 %230
  %232 = load i8, i8* %231, align 1
  %233 = sext i8 %232 to i32
  %234 = icmp ne i32 %233, 0
  br i1 %234, label %235, label %245

235:                                              ; preds = %228
  %236 = load i32, i32* %7, align 4
  %237 = sext i32 %236 to i64
  %238 = getelementptr inbounds [101 x i8], [101 x i8]* %2, i64 0, i64 %237
  %239 = load i8, i8* %238, align 1
  %240 = sext i8 %239 to i32
  %241 = call i32 (i8*, ...) @printf(i8* getelementptr inbounds ([3 x i8], [3 x i8]* @.str, i64 0, i64 0), i32 %240)
  br label %242

242:                                              ; preds = %235
  %243 = load i32, i32* %7, align 4
  %244 = add nsw i32 %243, 1
  store i32 %244, i32* %7, align 4
  br label %228

245:                                              ; preds = %228
  %246 = load i32, i32* %1, align 4
  ret i32 %246
}

declare dso_local i32 @gets(...) #1

declare dso_local i32 @printf(i8*, ...) #1


!llvm.module.flags = !{!0}
!llvm.ident = !{!1}

!0 = !{i32 1, !"wchar_size", i32 4}
!1 = !{!"clang version 10.0.0-4ubuntu1 "}
